target datalayout = "e-m:e-p270:32:32-p271:32:32-p272:64:64-i64:64-i128:128-f80:128-n8:16:32:64-S128"
target triple = "x86_64-pc-linux-gnu"

%"class.std::__cxx11::basic_string" = type { %"struct.std::__cxx11::basic_string<char>::_Alloc_hider", i64, %union.anon }
%"struct.std::__cxx11::basic_string<char>::_Alloc_hider" = type { ptr }
%union.anon = type { i64, [8 x i8] }
%"class.Imath_3_2::Box" = type { %"class.Imath_3_2::Vec2", %"class.Imath_3_2::Vec2" }
%"class.Imath_3_2::Vec2" = type { i32, i32 }
%"class.Imath_3_2::half" = type { i16 }
%"struct.Imf_3_4::Rgba" = type { %"class.Imath_3_2::half", %"class.Imath_3_2::half", %"class.Imath_3_2::half", %"class.Imath_3_2::half" }
%"class.Imf_3_4::Array2D.28" = type { i64, i64, ptr }
%"class.Imf_3_4::TiledRgbaInputFile" = type { ptr, ptr, ptr, %"class.std::__cxx11::basic_string" }

; Function Attrs: mustprogress nounwind uwtable
define linkonce_odr dso_local void @_ZN7Imf_3_44RgbaC2Ev(ptr noundef nonnull align 2 dereferenceable(8) %0) unnamed_addr #5 comdat align 2 {
  %2 = alloca ptr, align 8
  store ptr %0, ptr %2, align 8, !tbaa !138
  ret void
}

; Function Attrs: inlinehint mustprogress nounwind uwtable
define linkonce_odr dso_local void @_ZN9Imath_3_24Vec2IiEC2ERKS1_(ptr noundef nonnull align 4 dereferenceable(8) %0, ptr noundef nonnull align 4 dereferenceable(8) %1) unnamed_addr #10 comdat align 2 {
  %3 = alloca ptr, align 8
  %4 = alloca ptr, align 8
  store ptr %0, ptr %3, align 8, !tbaa !176
  store ptr %1, ptr %4, align 8, !tbaa !176
  %5 = load ptr, ptr %3, align 8
  %6 = getelementptr inbounds nuw %"class.Imath_3_2::Vec2", ptr %5, i32 0, i32 0
  %7 = load ptr, ptr %4, align 8, !tbaa !176
  %8 = getelementptr inbounds nuw %"class.Imath_3_2::Vec2", ptr %7, i32 0, i32 0
  %9 = load i32, ptr %8, align 4, !tbaa !178
  store i32 %9, ptr %6, align 4, !tbaa !178
  %10 = getelementptr inbounds nuw %"class.Imath_3_2::Vec2", ptr %5, i32 0, i32 1
  %11 = load ptr, ptr %4, align 8, !tbaa !176
  %12 = getelementptr inbounds nuw %"class.Imath_3_2::Vec2", ptr %11, i32 0, i32 1
  %13 = load i32, ptr %12, align 4, !tbaa !179
  store i32 %13, ptr %10, align 4, !tbaa !179
  ret void
}

; Function Attrs: inlinehint mustprogress nounwind uwtable
define linkonce_odr dso_local noundef ptr @_ZN7Imf_3_47Array2DINS_4RgbaEEixEl(ptr noundef nonnull align 8 dereferenceable(24) %0, i64 noundef %1) #10 comdat align 2 {
  %3 = alloca ptr, align 8
  %4 = alloca i64, align 8
  store ptr %0, ptr %3, align 8, !tbaa !136
  store i64 %1, ptr %4, align 8, !tbaa !30
  %5 = load ptr, ptr %3, align 8
  %6 = getelementptr inbounds nuw %"class.Imf_3_4::Array2D.28", ptr %5, i32 0, i32 2
  %7 = load ptr, ptr %6, align 8, !tbaa !140
  %8 = load i64, ptr %4, align 8, !tbaa !30
  %9 = getelementptr inbounds nuw %"class.Imf_3_4::Array2D.28", ptr %5, i32 0, i32 1
  %10 = load i64, ptr %9, align 8, !tbaa !143
  %11 = mul nsw i64 %8, %10
  %12 = getelementptr inbounds %"struct.Imf_3_4::Rgba", ptr %7, i64 %11
  ret ptr %12
}

; Function Attrs: inlinehint mustprogress uwtable
define linkonce_odr dso_local void @_ZN7Imf_3_47Array2DINS_4RgbaEE11resizeEraseEll(ptr noundef nonnull align 8 dereferenceable(24) %0, i64 noundef %1, i64 noundef %2) #8 comdat align 2 personality ptr @__gxx_personality_v0 {
  %4 = alloca ptr, align 8
  %5 = alloca i64, align 8
  %6 = alloca i64, align 8
  %7 = alloca ptr, align 8
  %8 = alloca ptr, align 8
  %9 = alloca i32, align 4
  store ptr %0, ptr %4, align 8, !tbaa !136
  store i64 %1, ptr %5, align 8, !tbaa !30
  store i64 %2, ptr %6, align 8, !tbaa !30
  %10 = load ptr, ptr %4, align 8
  call void @llvm.lifetime.start.p0(i64 8, ptr %7) #3
  %11 = load i64, ptr %5, align 8, !tbaa !30
  %12 = load i64, ptr %6, align 8, !tbaa !30
  %13 = mul nsw i64 %11, %12
  %14 = call { i64, i1 } @llvm.umul.with.overflow.i64(i64 %13, i64 8)
  %15 = extractvalue { i64, i1 } %14, 1
  %16 = extractvalue { i64, i1 } %14, 0
  %17 = select i1 %15, i64 -1, i64 %16
  %18 = call noalias noundef nonnull ptr @_Znam(i64 noundef %17) #27
  %19 = icmp eq i64 %13, 0
  br i1 %19, label %27, label %20

20:                                               ; preds = %3
  %21 = getelementptr inbounds %"struct.Imf_3_4::Rgba", ptr %18, i64 %13
  br label %22

22:                                               ; preds = %24, %20
  %23 = phi ptr [ %18, %20 ], [ %25, %24 ]
  invoke void @_ZN7Imf_3_44RgbaC2Ev(ptr noundef nonnull align 2 dereferenceable(8) %23)
          to label %24 unwind label %39

24:                                               ; preds = %22
  %25 = getelementptr inbounds %"struct.Imf_3_4::Rgba", ptr %23, i64 1
  %26 = icmp eq ptr %25, %21
  br i1 %26, label %27, label %22

27:                                               ; preds = %3, %24
  store ptr %18, ptr %7, align 8, !tbaa !138
  %28 = getelementptr inbounds nuw %"class.Imf_3_4::Array2D.28", ptr %10, i32 0, i32 2
  %29 = load ptr, ptr %28, align 8, !tbaa !140
  %30 = icmp eq ptr %29, null
  br i1 %30, label %32, label %31

31:                                               ; preds = %27
  call void @_ZdaPv(ptr noundef %29) #26
  br label %32

32:                                               ; preds = %31, %27
  %33 = load i64, ptr %5, align 8, !tbaa !30
  %34 = getelementptr inbounds nuw %"class.Imf_3_4::Array2D.28", ptr %10, i32 0, i32 0
  store i64 %33, ptr %34, align 8, !tbaa !142
  %35 = load i64, ptr %6, align 8, !tbaa !30
  %36 = getelementptr inbounds nuw %"class.Imf_3_4::Array2D.28", ptr %10, i32 0, i32 1
  store i64 %35, ptr %36, align 8, !tbaa !143
  %37 = load ptr, ptr %7, align 8, !tbaa !138
  %38 = getelementptr inbounds nuw %"class.Imf_3_4::Array2D.28", ptr %10, i32 0, i32 2
  store ptr %37, ptr %38, align 8, !tbaa !140
  call void @llvm.lifetime.end.p0(i64 8, ptr %7) #3
  ret void

39:                                               ; preds = %22
  %40 = landingpad { ptr, i32 }
          cleanup
  %41 = extractvalue { ptr, i32 } %40, 0
  store ptr %41, ptr %8, align 8
  %42 = extractvalue { ptr, i32 } %40, 1
  store i32 %42, ptr %9, align 4
  call void @_ZdaPvm(ptr noundef %18, i64 noundef %17) #26
  call void @llvm.lifetime.end.p0(i64 8, ptr %7) #3
  br label %43

43:                                               ; preds = %39
  %44 = load ptr, ptr %8, align 8
  %45 = load i32, ptr %9, align 4
  %46 = insertvalue { ptr, i32 } poison, ptr %44, 0
  %47 = insertvalue { ptr, i32 } %46, i32 %45, 1
  resume { ptr, i32 } %47
}

; Function Attrs: inlinehint mustprogress nounwind uwtable
define linkonce_odr dso_local void @_ZN9Imath_3_23BoxINS_4Vec2IiEEEC2ERKS3_(ptr noundef nonnull align 4 dereferenceable(16) %0, ptr noundef nonnull align 4 dereferenceable(16) %1) unnamed_addr #10 comdat align 2 {
  %3 = alloca ptr, align 8
  %4 = alloca ptr, align 8
  store ptr %0, ptr %3, align 8, !tbaa !50
  store ptr %1, ptr %4, align 8, !tbaa !50
  %5 = load ptr, ptr %3, align 8
  %6 = getelementptr inbounds nuw %"class.Imath_3_2::Box", ptr %5, i32 0, i32 0
  %7 = load ptr, ptr %4, align 8, !tbaa !50
  %8 = getelementptr inbounds nuw %"class.Imath_3_2::Box", ptr %7, i32 0, i32 0
  call void @_ZN9Imath_3_24Vec2IiEC2ERKS1_(ptr noundef nonnull align 4 dereferenceable(8) %6, ptr noundef nonnull align 4 dereferenceable(8) %8) #3
  %9 = getelementptr inbounds nuw %"class.Imath_3_2::Box", ptr %5, i32 0, i32 1
  %10 = load ptr, ptr %4, align 8, !tbaa !50
  %11 = getelementptr inbounds nuw %"class.Imath_3_2::Box", ptr %10, i32 0, i32 1
  call void @_ZN9Imath_3_24Vec2IiEC2ERKS1_(ptr noundef nonnull align 4 dereferenceable(8) %9, ptr noundef nonnull align 4 dereferenceable(8) %11) #3
  ret void
}

; Function Attrs: mustprogress uwtable
define dso_local void @_Z14readTiledRgba1PKcRN7Imf_3_47Array2DINS1_4RgbaEEERiS6_(ptr noundef %0, ptr noundef nonnull align 8 dereferenceable(24) %1, ptr noundef nonnull align 4 dereferenceable(4) %2, ptr noundef nonnull align 4 dereferenceable(4) %3) #6 personality ptr @__gxx_personality_v0 {
  %5 = alloca ptr, align 8
  %6 = alloca ptr, align 8
  %7 = alloca ptr, align 8
  %8 = alloca ptr, align 8
  %9 = alloca %"class.Imf_3_4::TiledRgbaInputFile", align 8
  %10 = alloca %"class.Imath_3_2::Box", align 4
  %11 = alloca ptr, align 8
  %12 = alloca i32, align 4
  %13 = alloca i32, align 4
  %14 = alloca i32, align 4
  store ptr %0, ptr %5, align 8, !tbaa !11
  store ptr %1, ptr %6, align 8, !tbaa !136
  store ptr %2, ptr %7, align 8, !tbaa !67
  store ptr %3, ptr %8, align 8, !tbaa !67
  call void @llvm.lifetime.start.p0(i64 56, ptr %9) #3
  %15 = load ptr, ptr %5, align 8, !tbaa !11
  %16 = call noundef i32 @_ZN7Imf_3_417globalThreadCountEv()
  call void @_ZN7Imf_3_418TiledRgbaInputFileC1EPKci(ptr noundef nonnull align 8 dereferenceable(56) %9, ptr noundef %15, i32 noundef %16)
  call void @llvm.lifetime.start.p0(i64 16, ptr %10) #3
  %17 = invoke noundef nonnull align 4 dereferenceable(16) ptr @_ZNK7Imf_3_418TiledRgbaInputFile10dataWindowEv(ptr noundef nonnull align 8 dereferenceable(56) %9)
          to label %18 unwind label %72

18:                                               ; preds = %4
  call void @_ZN9Imath_3_23BoxINS_4Vec2IiEEEC2ERKS3_(ptr noundef nonnull align 4 dereferenceable(16) %10, ptr noundef nonnull align 4 dereferenceable(16) %17) #3
  %19 = getelementptr inbounds nuw %"class.Imath_3_2::Box", ptr %10, i32 0, i32 1
  %20 = getelementptr inbounds nuw %"class.Imath_3_2::Vec2", ptr %19, i32 0, i32 0
  %21 = load i32, ptr %20, align 4, !tbaa !54
  %22 = getelementptr inbounds nuw %"class.Imath_3_2::Box", ptr %10, i32 0, i32 0
  %23 = getelementptr inbounds nuw %"class.Imath_3_2::Vec2", ptr %22, i32 0, i32 0
  %24 = load i32, ptr %23, align 4, !tbaa !57
  %25 = sub nsw i32 %21, %24
  %26 = add nsw i32 %25, 1
  %27 = load ptr, ptr %7, align 8, !tbaa !67
  store i32 %26, ptr %27, align 4, !tbaa !13
  %28 = getelementptr inbounds nuw %"class.Imath_3_2::Box", ptr %10, i32 0, i32 1
  %29 = getelementptr inbounds nuw %"class.Imath_3_2::Vec2", ptr %28, i32 0, i32 1
  %30 = load i32, ptr %29, align 4, !tbaa !58
  %31 = getelementptr inbounds nuw %"class.Imath_3_2::Box", ptr %10, i32 0, i32 0
  %32 = getelementptr inbounds nuw %"class.Imath_3_2::Vec2", ptr %31, i32 0, i32 1
  %33 = load i32, ptr %32, align 4, !tbaa !59
  %34 = sub nsw i32 %30, %33
  %35 = add nsw i32 %34, 1
  %36 = load ptr, ptr %8, align 8, !tbaa !67
  store i32 %35, ptr %36, align 4, !tbaa !13
  call void @llvm.lifetime.start.p0(i64 4, ptr %13) #3
  %37 = getelementptr inbounds nuw %"class.Imath_3_2::Box", ptr %10, i32 0, i32 0
  %38 = getelementptr inbounds nuw %"class.Imath_3_2::Vec2", ptr %37, i32 0, i32 0
  %39 = load i32, ptr %38, align 4, !tbaa !57
  store i32 %39, ptr %13, align 4, !tbaa !13
  call void @llvm.lifetime.start.p0(i64 4, ptr %14) #3
  %40 = getelementptr inbounds nuw %"class.Imath_3_2::Box", ptr %10, i32 0, i32 0
  %41 = getelementptr inbounds nuw %"class.Imath_3_2::Vec2", ptr %40, i32 0, i32 1
  %42 = load i32, ptr %41, align 4, !tbaa !59
  store i32 %42, ptr %14, align 4, !tbaa !13
  %43 = load ptr, ptr %6, align 8, !tbaa !136
  %44 = load ptr, ptr %8, align 8, !tbaa !67
  %45 = load i32, ptr %44, align 4, !tbaa !13
  %46 = sext i32 %45 to i64
  %47 = load ptr, ptr %7, align 8, !tbaa !67
  %48 = load i32, ptr %47, align 4, !tbaa !13
  %49 = sext i32 %48 to i64
  invoke void @_ZN7Imf_3_47Array2DINS_4RgbaEE11resizeEraseEll(ptr noundef nonnull align 8 dereferenceable(24) %43, i64 noundef %46, i64 noundef %49)
          to label %50 unwind label %76

50:                                               ; preds = %18
  %51 = load ptr, ptr %6, align 8, !tbaa !136
  %52 = load i32, ptr %14, align 4, !tbaa !13
  %53 = sub nsw i32 0, %52
  %54 = sext i32 %53 to i64
  %55 = invoke noundef ptr @_ZN7Imf_3_47Array2DINS_4RgbaEEixEl(ptr noundef nonnull align 8 dereferenceable(24) %51, i64 noundef %54)
          to label %56 unwind label %76

56:                                               ; preds = %50
  %57 = load i32, ptr %13, align 4, !tbaa !13
  %58 = sub nsw i32 0, %57
  %59 = sext i32 %58 to i64
  %60 = getelementptr inbounds %"struct.Imf_3_4::Rgba", ptr %55, i64 %59
  %61 = load ptr, ptr %7, align 8, !tbaa !67
  %62 = load i32, ptr %61, align 4, !tbaa !13
  %63 = sext i32 %62 to i64
  invoke void @_ZN7Imf_3_418TiledRgbaInputFile14setFrameBufferEPNS_4RgbaEmm(ptr noundef nonnull align 8 dereferenceable(56) %9, ptr noundef %60, i64 noundef 1, i64 noundef %63)
          to label %64 unwind label %76

64:                                               ; preds = %56
  %65 = invoke noundef i32 @_ZNK7Imf_3_418TiledRgbaInputFile9numXTilesEi(ptr noundef nonnull align 8 dereferenceable(56) %9, i32 noundef 0)
          to label %66 unwind label %76

66:                                               ; preds = %64
  %67 = sub nsw i32 %65, 1
  %68 = invoke noundef i32 @_ZNK7Imf_3_418TiledRgbaInputFile9numYTilesEi(ptr noundef nonnull align 8 dereferenceable(56) %9, i32 noundef 0)
          to label %69 unwind label %76

69:                                               ; preds = %66
  %70 = sub nsw i32 %68, 1
  invoke void @_ZN7Imf_3_418TiledRgbaInputFile9readTilesEiiiii(ptr noundef nonnull align 8 dereferenceable(56) %9, i32 noundef 0, i32 noundef %67, i32 noundef 0, i32 noundef %70, i32 noundef 0)
          to label %71 unwind label %76

71:                                               ; preds = %69
  call void @llvm.lifetime.end.p0(i64 4, ptr %14) #3
  call void @llvm.lifetime.end.p0(i64 4, ptr %13) #3
  call void @llvm.lifetime.end.p0(i64 16, ptr %10) #3
  call void @_ZN7Imf_3_418TiledRgbaInputFileD1Ev(ptr noundef nonnull align 8 dereferenceable(56) %9) #3
  call void @llvm.lifetime.end.p0(i64 56, ptr %9) #3
  ret void

72:                                               ; preds = %4
  %73 = landingpad { ptr, i32 }
          cleanup
  %74 = extractvalue { ptr, i32 } %73, 0
  store ptr %74, ptr %11, align 8
  %75 = extractvalue { ptr, i32 } %73, 1
  store i32 %75, ptr %12, align 4
  br label %80

76:                                               ; preds = %69, %66, %64, %56, %50, %18
  %77 = landingpad { ptr, i32 }
          cleanup
  %78 = extractvalue { ptr, i32 } %77, 0
  store ptr %78, ptr %11, align 8
  %79 = extractvalue { ptr, i32 } %77, 1
  store i32 %79, ptr %12, align 4
  call void @llvm.lifetime.end.p0(i64 4, ptr %14) #3
  call void @llvm.lifetime.end.p0(i64 4, ptr %13) #3
  br label %80

80:                                               ; preds = %76, %72
  call void @llvm.lifetime.end.p0(i64 16, ptr %10) #3
  call void @_ZN7Imf_3_418TiledRgbaInputFileD1Ev(ptr noundef nonnull align 8 dereferenceable(56) %9) #3
  call void @llvm.lifetime.end.p0(i64 56, ptr %9) #3
  br label %81

81:                                               ; preds = %80
  %82 = load ptr, ptr %11, align 8
  %83 = load i32, ptr %12, align 4
  %84 = insertvalue { ptr, i32 } poison, ptr %82, 0
  %85 = insertvalue { ptr, i32 } %84, i32 %83, 1
  resume { ptr, i32 } %85
}