; Function Attrs: mustprogress uwtable
define dso_local void @_Z14readTiledRgba1PKcRN7Imf_3_47Array2DINS1_4RgbaEEERiS6_(ptr noundef %0, ptr noundef nonnull align 8 captures(none) dereferenceable(24) %1, ptr noundef nonnull align 4 captures(none) dereferenceable(4) %2, ptr noundef nonnull writeonly align 4 captures(none) dereferenceable(4) %3) local_unnamed_addr #8 personality ptr @__gxx_personality_v0 {
  %5 = alloca %"class.Imf_3_4::TiledRgbaInputFile", align 8
  call void @llvm.lifetime.start.p0(i64 56, ptr nonnull %5) #36
  %6 = tail call noundef i32 @_ZN7Imf_3_417globalThreadCountEv()
  call void @_ZN7Imf_3_418TiledRgbaInputFileC1EPKci(ptr noundef nonnull align 8 dereferenceable(56) %5, ptr noundef %0, i32 noundef %6)
  %7 = invoke noundef nonnull align 4 dereferenceable(16) ptr @_ZNK7Imf_3_418TiledRgbaInputFile10dataWindowEv(ptr noundef nonnull align 8 dereferenceable(56) %5)
          to label %8 unwind label %48

8:                                                ; preds = %4
  %9 = load i32, ptr %7, align 4, !tbaa !60
  %10 = sub i32 0, %9
  %11 = getelementptr inbounds nuw i8, ptr %7, i64 4
  %12 = load i32, ptr %11, align 4, !tbaa !62
  %13 = getelementptr inbounds nuw i8, ptr %7, i64 8
  %14 = load i32, ptr %13, align 4, !tbaa !60
  %15 = getelementptr inbounds nuw i8, ptr %7, i64 12
  %16 = load i32, ptr %15, align 4, !tbaa !62
  %reass.sub = sub i32 %14, %9
  %17 = add i32 %reass.sub, 1
  store i32 %17, ptr %2, align 4, !tbaa !59
  %18 = sub nsw i32 %16, %12
  %19 = add nsw i32 %18, 1
  store i32 %19, ptr %3, align 4, !tbaa !59
  %20 = sext i32 %19 to i64
  %21 = load i32, ptr %2, align 4, !tbaa !59
  %22 = sext i32 %21 to i64
  %23 = mul nsw i64 %22, %20
  %24 = icmp ugt i64 %23, 2305843009213693951
  %25 = shl nuw i64 %23, 3
  %26 = select i1 %24, i64 -1, i64 %25
  %27 = invoke noalias noundef nonnull ptr @_Znam(i64 noundef %26) #39
          to label %.noexc unwind label %50

.noexc:                                           ; preds = %8
  %28 = getelementptr inbounds nuw i8, ptr %1, i64 16
  %29 = load ptr, ptr %28, align 8, !tbaa !151
  %30 = icmp eq ptr %29, null
  br i1 %30, label %32, label %31

31:                                               ; preds = %.noexc
  call void @_ZdaPv(ptr noundef nonnull %29) #38
  %.pre = load i32, ptr %2, align 4, !tbaa !59
  %.pre14 = sext i32 %.pre to i64
  br label %32

32:                                               ; preds = %31, %.noexc
  %.pre-phi = phi i64 [ %.pre14, %31 ], [ %22, %.noexc ]
  store i64 %20, ptr %1, align 8, !tbaa !154
  %33 = getelementptr inbounds nuw i8, ptr %1, i64 8
  store i64 %22, ptr %33, align 8, !tbaa !155
  store ptr %27, ptr %28, align 8, !tbaa !151
  %34 = sub nsw i32 0, %12
  %35 = sext i32 %34 to i64
  %36 = mul nsw i64 %22, %35
  %37 = getelementptr inbounds %"struct.Imf_3_4::Rgba", ptr %27, i64 %36
  %38 = sext i32 %10 to i64
  %39 = getelementptr inbounds %"struct.Imf_3_4::Rgba", ptr %37, i64 %38
  invoke void @_ZN7Imf_3_418TiledRgbaInputFile14setFrameBufferEPNS_4RgbaEmm(ptr noundef nonnull align 8 dereferenceable(56) %5, ptr noundef nonnull %39, i64 noundef 1, i64 noundef %.pre-phi)
          to label %40 unwind label %50

40:                                               ; preds = %32
  %41 = invoke noundef i32 @_ZNK7Imf_3_418TiledRgbaInputFile9numXTilesEi(ptr noundef nonnull align 8 dereferenceable(56) %5, i32 noundef 0)
          to label %42 unwind label %50

42:                                               ; preds = %40
  %43 = invoke noundef i32 @_ZNK7Imf_3_418TiledRgbaInputFile9numYTilesEi(ptr noundef nonnull align 8 dereferenceable(56) %5, i32 noundef 0)
          to label %44 unwind label %50

44:                                               ; preds = %42
  %45 = add nsw i32 %41, -1
  %46 = add nsw i32 %43, -1
  invoke void @_ZN7Imf_3_418TiledRgbaInputFile9readTilesEiiiii(ptr noundef nonnull align 8 dereferenceable(56) %5, i32 noundef 0, i32 noundef %45, i32 noundef 0, i32 noundef %46, i32 noundef 0)
          to label %47 unwind label %50

47:                                               ; preds = %44
  call void @_ZN7Imf_3_418TiledRgbaInputFileD1Ev(ptr noundef nonnull align 8 dereferenceable(56) %5) #36
  call void @llvm.lifetime.end.p0(i64 56, ptr nonnull %5) #36
  ret void

48:                                               ; preds = %4
  %49 = landingpad { ptr, i32 }
          cleanup
  br label %52

50:                                               ; preds = %8, %44, %42, %40, %32
  %51 = landingpad { ptr, i32 }
          cleanup
  br label %52

52:                                               ; preds = %50, %48
  %.pn = phi { ptr, i32 } [ %51, %50 ], [ %49, %48 ]
  call void @_ZN7Imf_3_418TiledRgbaInputFileD1Ev(ptr noundef nonnull align 8 dereferenceable(56) %5) #36
  call void @llvm.lifetime.end.p0(i64 56, ptr nonnull %5) #36
  resume { ptr, i32 } %.pn
}